; Function Attrs: mustprogress nofree norecurse nounwind uwtable
define hidden noundef zeroext i1 @_ZN11JvmtiExport24has_early_class_hook_envEv() local_unnamed_addr #7 align 2 {
  %1 = load i32, ptr @_ZN7Threads18_number_of_threadsE, align 4
  %.not5 = icmp eq i32 %1, 0
  br i1 %.not5, label %_ZN16JvmtiEnvIteratorC2Ev.exit, label %2

2:                                                ; preds = %0
  %3 = tail call align 8 ptr @llvm.threadlocal.address.p0(ptr align 8 @_ZN6Thread12_thr_currentE)
  %4 = load ptr, ptr %3, align 8
  %5 = getelementptr inbounds i8, ptr %4, i64 844
  %6 = load volatile i32, ptr %5, align 4
  %7 = add nsw i32 %6, 1
  store volatile i32 %7, ptr %5, align 4
  br label %_ZN16JvmtiEnvIteratorC2Ev.exit

_ZN16JvmtiEnvIteratorC2Ev.exit:                   ; preds = %0, %2
  %.06 = load ptr, ptr @_ZN12JvmtiEnvBase17_head_environmentE, align 8
  %.not7.not = icmp eq ptr %.06, null
  br i1 %.not7.not, label %._crit_edge, label %.lr.ph

8:                                                ; preds = %.lr.ph
  %9 = getelementptr inbounds i8, ptr %.08, i64 16
  %.0 = load ptr, ptr %9, align 8
  %.not.not = icmp eq ptr %.0, null
  br i1 %.not.not, label %._crit_edge, label %.lr.ph, !llvm.loop !14

.lr.ph:                                           ; preds = %_ZN16JvmtiEnvIteratorC2Ev.exit, %8
  %.08 = phi ptr [ %.0, %8 ], [ %.06, %_ZN16JvmtiEnvIteratorC2Ev.exit ]
  %10 = getelementptr inbounds i8, ptr %.08, i64 408
  %11 = load i64, ptr %10, align 4
  %12 = and i64 %11, 4398113619968
  %13 = icmp eq i64 %12, 4398113619968
  br i1 %13, label %._crit_edge, label %8

._crit_edge:                                      ; preds = %.lr.ph, %8, %_ZN16JvmtiEnvIteratorC2Ev.exit
  %.not.lcssa = phi i1 [ false, %_ZN16JvmtiEnvIteratorC2Ev.exit ], [ %13, %8 ], [ %13, %.lr.ph ]
  br i1 %.not5, label %_ZN16JvmtiEnvIteratorD2Ev.exit, label %14

14:                                               ; preds = %._crit_edge
  %15 = tail call align 8 ptr @llvm.threadlocal.address.p0(ptr align 8 @_ZN6Thread12_thr_currentE)
  %16 = load ptr, ptr %15, align 8
  %17 = getelementptr inbounds i8, ptr %16, i64 844
  %18 = load volatile i32, ptr %17, align 4
  %19 = add nsw i32 %18, -1
  store volatile i32 %19, ptr %17, align 4
  br label %_ZN16JvmtiEnvIteratorD2Ev.exit

_ZN16JvmtiEnvIteratorD2Ev.exit:                   ; preds = %._crit_edge, %14
  ret i1 %.not.lcssa
}